(dp0
S'tSimulation'
p1
I23
sS'ToBusIndex'
p2
(lp3
I1
aI4
aI2
aI3
aI4
aI3
aI4
aI6
aI8
aI5
aI10
aI11
aI12
aI7
aI8
aI9
aI13
aI10
aI12
aI13
asS'GeneratorQmin'
p4
(lp5
F-70.0
aF-52.5
aF-52.5
aF-52.5
aF-52.5
aF-24.015179563180958
aF-25.264257373812136
asS'Generator'
p6
(lp7
S'G1'
p8
aS'G2'
p9
aS'G3'
p10
aS'G6'
p11
aS'G8'
p12
aS'Wind2'
p13
aS'Solar8'
p14
asS'FromBusIndex'
p15
(lp16
I0
aI0
aI1
aI1
aI1
aI2
aI3
aI3
aI3
aI4
aI5
aI5
aI5
aI6
aI6
aI8
aI8
aI9
aI11
aI12
asS'GeneratorQmax'
p17
(lp18
F70.0
aF52.5
aF52.5
aF52.5
aF52.5
aF24.015179563180958
aF25.264257373812136
asS'GeneratorSRampUpInMW'
p19
(lp20
F40.01
aF22.5
aF22.5
aF22.5
aF22.5
aF343.073993759728
aF360.9179624830306
asS'PowerAvailabilityInDispatchModel'
p21
(lp22
(lp23
F0.0
aF0.0
aF0.0
aF0.0
aF0.0
acnumpy.core.multiarray
scalar
p24
(cnumpy
dtype
p25
(S'f8'
p26
I0
I1
tp27
Rp28
(I3
S'<'
p29
NNNI-1
I-1
I0
tp30
bS'\xbd\x9f\xb0\x16\xcf\x84:@'
p31
tp32
Rp33
aF0.0
aasS'LineChargingB'
p34
(lp35
F0.0
aF0.0
aF0.0
aF0.0
aF0.0
aF0.0
aF0.0
aF0.0
aF0.0
aF0.0
aF0.0
aF0.0
aF0.0
aF0.0
aF0.0
aF0.0
aF0.0
aF0.0
aF0.0
aF0.0
asS'QdProfile'
p36
(lp37
(lp38
F0.0
aF12.7
aF19.0
aF-3.9
aF1.6
aF7.500000000000001
aF0.0
aF0.0
aF16.6
aF5.8
aF1.8
aF1.6
aF5.8
aF5.0
aa(lp39
F0.0
aF10.356138996138998
aF15.493436293436297
aF-3.1802316602316614
aF1.3047104247104253
aF6.115830115830119
aF0.0
aF0.0
aF13.536370656370663
aF4.7295752895752905
aF1.467799227799228
aF1.304710424710425
aF4.729575289575291
aF4.077220077220079
aa(lp40
F0.0
aF9.100849420849423
aF13.615444015444016
aF-2.794749034749035
aF1.146563706563707
aF5.374517374517376
aF0.0
aF0.0
aF11.895598455598456
aF4.156293436293437
aF1.28988416988417
aF1.1465637065637069
aF4.156293436293438
aF3.583011583011584
aa(lp41
F0.0
aF8.159382239382241
aF12.20694980694981
aF-2.5056370656370666
aF1.0279536679536683
aF4.8185328185328204
aF0.0
aF0.0
aF10.665019305019309
aF3.7263320463320477
aF1.1564478764478767
aF1.0279536679536683
aF3.7263320463320473
aF3.2123552123552135
aa(lp42
F0.0
aF7.845559845559847
aF11.73745173745174
aF-2.40926640926641
aF0.9884169884169888
aF4.633204633204635
aF0.0
aF0.0
aF10.254826254826257
aF3.583011583011584
aF1.1119691119691122
aF0.9884169884169887
aF3.583011583011584
aF3.0888030888030897
aa(lp43
F0.0
aF9.414671814671816
aF14.084942084942089
aF-2.8911196911196924
aF1.1861003861003863
aF5.559845559845562
aF0.0
aF0.0
aF12.305791505791511
aF4.2996138996139
aF1.3343629343629346
aF1.1861003861003867
aF4.299613899613901
aF3.7065637065637076
aa(lp44
F0.0
aF10.983783783783785
aF16.43243243243244
aF-3.372972972972974
aF1.3837837837837843
aF6.486486486486488
aF0.0
aF0.0
aF14.356756756756763
aF5.016216216216217
aF1.556756756756757
aF1.3837837837837843
aF5.016216216216217
aF4.3243243243243255
aa(lp45
F0.0
aF12.239073359073362
aF18.310424710424716
aF-3.7584555984556
aF1.5419305019305025
aF7.22779922779923
aF0.0
aF0.0
aF15.997528957528964
aF5.589498069498071
aF1.7346718146718152
aF1.5419305019305025
aF5.589498069498071
aF4.8185328185328204
aa(lp46
F0.0
aF12.866718146718148
aF19.24942084942085
aF-3.951196911196912
aF1.6210038610038615
aF7.5984555984556
aF0.0
aF0.0
aF16.817915057915062
aF5.876138996138996
aF1.8236293436293438
aF1.621003861003861
aF5.876138996138997
aF5.065637065637066
aa(lp47
F0.0
aF13.808185328185331
aF20.657915057915066
aF-4.2403088803088815
aF1.7396138996139003
aF8.154440154440158
aF0.0
aF0.0
aF18.048494208494215
aF6.306100386100388
aF1.9570656370656376
aF1.7396138996139006
aF6.306100386100388
aF5.436293436293438
aa(lp48
F0.0
aF13.965096525096527
aF20.892664092664095
aF-4.28849420849421
aF1.7593822393822403
aF8.24710424710425
aF0.0
aF0.0
aF18.253590733590737
aF6.377760617760619
aF1.9793050193050197
aF1.75938223938224
aF6.377760617760619
aF5.4980694980694995
aa(lp49
F0.0
aF13.180540540540543
aF19.718918918918924
aF-4.047567567567569
aF1.6605405405405413
aF7.783783783783787
aF0.0
aF0.0
aF17.228108108108113
aF6.019459459459461
aF1.8681081081081086
aF1.660540540540541
aF6.019459459459461
aF5.18918918918919
aa(lp50
F0.0
aF12.552895752895754
aF18.77992277992278
aF-3.8548262548262557
aF1.5814671814671821
aF7.413127413127415
aF0.0
aF0.0
aF16.407722007722015
aF5.732818532818534
aF1.7791505791505795
aF1.581467181467182
aF5.732818532818534
aF4.942084942084944
aa(lp51
F0.0
aF11.925250965250967
aF17.840926640926643
aF-3.662084942084943
aF1.502393822393823
aF7.0424710424710435
aF0.0
aF0.0
aF15.58733590733591
aF5.446177606177607
aF1.6901930501930504
aF1.5023938223938227
aF5.446177606177607
aF4.694980694980695
aa(lp52
F0.0
aF13.808185328185331
aF20.657915057915066
aF-4.2403088803088815
aF1.7396138996139003
aF8.154440154440158
aF0.0
aF0.0
aF18.048494208494215
aF6.306100386100388
aF1.9570656370656376
aF1.7396138996139006
aF6.306100386100388
aF5.436293436293438
aa(lp53
F0.0
aF14.122007722007725
aF21.12741312741313
aF-4.336679536679537
aF1.7791505791505795
aF8.33976833976834
aF0.0
aF0.0
aF18.458687258687267
aF6.44942084942085
aF2.0015444015444017
aF1.7791505791505797
aF6.449420849420851
aF5.559845559845561
aa(lp54
F0.0
aF13.33745173745174
aF19.953667953667956
aF-4.095752895752897
aF1.6803088803088808
aF7.876447876447879
aF0.0
aF0.0
aF17.43320463320464
aF6.091119691119692
aF1.8903474903474908
aF1.6803088803088808
aF6.091119691119693
aF5.250965250965253
aa(lp55
F0.0
aF13.965096525096527
aF20.892664092664095
aF-4.28849420849421
aF1.7593822393822403
aF8.24710424710425
aF0.0
aF0.0
aF18.253590733590737
aF6.377760617760619
aF1.9793050193050197
aF1.75938223938224
aF6.377760617760619
aF5.4980694980694995
aa(lp56
F0.0
aF14.749652509652512
aF22.06640926640927
aF-4.52942084942085
aF1.8582239382239387
aF8.71042471042471
aF0.0
aF0.0
aF19.27907335907336
aF6.736061776061776
aF2.090501930501931
aF1.8582239382239385
aF6.736061776061776
aF5.806949806949807
aa(lp57
F0.0
aF15.377297297297302
aF23.00540540540541
aF-4.722162162162165
aF1.9372972972972977
aF9.081081081081084
aF0.0
aF0.0
aF20.099459459459467
aF7.022702702702705
aF2.17945945945946
aF1.9372972972972982
aF7.022702702702706
aF6.054054054054055
aa(lp58
F0.0
aF15.691119691119694
aF23.47490347490348
aF-4.81853281853282
aF1.9768339768339775
aF9.26640926640927
aF0.0
aF0.0
aF20.509652509652515
aF7.166023166023168
aF2.2239382239382244
aF1.9768339768339773
aF7.166023166023168
aF6.1776061776061795
aa(lp59
F0.0
aF14.122007722007725
aF21.12741312741313
aF-4.336679536679537
aF1.7791505791505795
aF8.33976833976834
aF0.0
aF0.0
aF18.458687258687267
aF6.44942084942085
aF2.0015444015444017
aF1.7791505791505797
aF6.449420849420851
aF5.559845559845561
aa(lp60
F0.0
aF13.651274131274132
aF20.423166023166026
aF-4.192123552123553
aF1.7198455598455602
aF8.061776061776063
aF0.0
aF0.0
aF17.843397683397686
aF6.234440154440154
aF1.934826254826255
aF1.7198455598455602
aF6.234440154440155
aF5.374517374517375
aa(lp61
F0.0
aF12.866718146718148
aF19.24942084942085
aF-3.951196911196912
aF1.6210038610038615
aF7.5984555984556
aF0.0
aF0.0
aF16.817915057915062
aF5.876138996138996
aF1.8236293436293438
aF1.621003861003861
aF5.876138996138997
aF5.065637065637066
aasS'QdInDispatchModel'
p62
(lp63
(lp64
F0.0
aF12.866718146718148
aF19.24942084942085
aF-3.951196911196912
aF1.6210038610038615
aF7.5984555984556
aF0.0
aF0.0
aF16.817915057915062
aF5.876138996138996
aF1.8236293436293438
aF1.621003861003861
aF5.876138996138997
aF5.065637065637066
aasS'GeneratorFixedCostInUSD'
p65
(lp66
F600.0
aF450.0
aF450.0
aF450.0
aF450.0
aF0.0
aF0.0
asS'PdProfile'
p67
(lp68
(lp69
F0.0
aF21.7
aF94.2
aF47.8
aF7.6
aF11.2
aF0.0
aF0.0
aF29.5
aF9.0
aF3.5
aF6.1
aF13.5
aF14.9
aa(lp70
F0.0
aF17.69513513513514
aF76.81482625482627
aF38.97822393822395
aF6.197374517374519
aF9.132972972972976
aF0.0
aF0.0
aF24.055598455598464
aF7.338996138996141
aF2.8540540540540547
aF4.974208494208495
aF11.008494208494213
aF12.150115830115833
aa(lp71
F0.0
aF15.550270270270273
aF67.50393822393823
aF34.25359073359074
aF5.446177606177607
aF8.025945945945947
aF0.0
aF0.0
aF21.13976833976834
aF6.449420849420851
aF2.5081081081081087
aF4.371274131274132
aF9.674131274131277
aF10.67737451737452
aa(lp72
F0.0
aF13.941621621621625
aF60.520772200772214
aF30.71011583011584
aF4.882779922779924
aF7.195675675675678
aF0.0
aF0.0
aF18.952895752895756
aF5.782239382239384
aF2.248648648648649
aF3.91907335907336
aF8.673359073359077
aF9.572818532818536
aa(lp73
F0.0
aF13.405405405405409
aF58.193050193050205
aF29.528957528957534
aF4.694980694980696
aF6.91891891891892
aF0.0
aF0.0
aF18.223938223938227
aF5.559845559845561
aF2.1621621621621627
aF3.768339768339769
aF8.339768339768343
aF9.204633204633208
aa(lp74
F0.0
aF16.08648648648649
aF69.83166023166025
aF35.434749034749046
aF5.633976833976835
aF8.302702702702705
aF0.0
aF0.0
aF21.868725868725875
aF6.671814671814673
aF2.594594594594595
aF4.522007722007723
aF10.00772200772201
aF11.045559845559849
aa(lp75
F0.0
aF18.76756756756757
aF81.47027027027029
aF41.34054054054055
aF6.572972972972974
aF9.686486486486489
aF0.0
aF0.0
aF25.51351351351352
aF7.783783783783785
aF3.0270270270270276
aF5.275675675675677
aF11.675675675675679
aF12.88648648648649
aa(lp76
F0.0
aF20.91243243243244
aF90.78115830115833
aF46.06517374517376
aF7.324169884169886
aF10.793513513513517
aF0.0
aF0.0
aF28.429343629343638
aF8.673359073359077
aF3.372972972972974
aF5.878610038610041
aF13.010038610038615
aF14.359227799227805
aa(lp77
F0.0
aF21.984864864864868
aF95.43660231660233
aF48.427490347490355
aF7.699768339768341
aF11.347027027027028
aF0.0
aF0.0
aF29.88725868725869
aF9.118146718146718
aF3.545945945945946
aF6.18007722007722
aF13.67722007722008
aF15.095598455598457
aa(lp78
F0.0
aF23.59351351351352
aF102.41976833976837
aF51.970965250965264
aF8.263166023166026
aF12.1772972972973
aF0.0
aF0.0
aF32.07413127413128
aF9.785328185328188
aF3.8054054054054065
aF6.632277992277994
aF14.677992277992283
aF16.200154440154446
aa(lp79
F0.0
aF23.861621621621627
aF103.58362934362937
aF52.56154440154442
aF8.35706563706564
aF12.31567567567568
aF0.0
aF0.0
aF32.438610038610044
aF9.8965250965251
aF3.8486486486486493
aF6.7076447876447896
aF14.84478764478765
aF16.38424710424711
aa(lp80
F0.0
aF22.521081081081086
aF97.76432432432435
aF49.60864864864866
aF7.88756756756757
aF11.623783783783788
aF0.0
aF0.0
aF30.616216216216223
aF9.340540540540543
aF3.632432432432433
aF6.330810810810812
aF14.010810810810815
aF15.463783783783787
aa(lp81
F0.0
aF21.448648648648653
aF93.10888030888033
aF47.24633204633206
aF7.511969111969114
aF11.070270270270273
aF0.0
aF0.0
aF29.158301158301164
aF8.895752895752898
aF3.45945945945946
aF6.02934362934363
aF13.343629343629347
aF14.727413127413131
aa(lp82
F0.0
aF20.37621621621622
aF88.45343629343631
aF44.88401544401545
aF7.136370656370658
aF10.516756756756758
aF0.0
aF0.0
aF27.700386100386105
aF8.450965250965252
aF3.286486486486487
aF5.727876447876449
aF12.67644787644788
aF13.991042471042475
aa(lp83
F0.0
aF23.59351351351352
aF102.41976833976837
aF51.970965250965264
aF8.263166023166026
aF12.1772972972973
aF0.0
aF0.0
aF32.07413127413128
aF9.785328185328188
aF3.8054054054054065
aF6.632277992277994
aF14.677992277992283
aF16.200154440154446
aa(lp84
F0.0
aF24.129729729729736
aF104.74749034749037
aF53.15212355212356
aF8.450965250965252
aF12.454054054054057
aF0.0
aF0.0
aF32.80308880308881
aF10.007722007722009
aF3.8918918918918926
aF6.783011583011584
aF15.011583011583015
aF16.568339768339772
aa(lp85
F0.0
aF22.789189189189194
aF98.92818532818535
aF50.19922779922781
aF7.981467181467183
aF11.762162162162165
aF0.0
aF0.0
aF30.980694980694988
aF9.451737451737454
aF3.6756756756756763
aF6.406177606177607
aF14.177606177606181
aF15.647876447876452
aa(lp86
F0.0
aF23.861621621621627
aF103.58362934362937
aF52.56154440154442
aF8.35706563706564
aF12.31567567567568
aF0.0
aF0.0
aF32.438610038610044
aF9.8965250965251
aF3.8486486486486493
aF6.7076447876447896
aF14.84478764478765
aF16.38424710424711
aa(lp87
F0.0
aF25.202162162162164
aF109.40293436293437
aF55.51444015444016
aF8.826563706563707
aF13.007567567567568
aF0.0
aF0.0
aF34.261003861003864
aF10.452509652509653
aF4.064864864864865
aF7.084478764478765
aF15.67876447876448
aF17.304710424710425
aa(lp88
F0.0
aF26.274594594594603
aF114.0583783783784
aF57.87675675675678
aF9.202162162162164
aF13.561081081081085
aF0.0
aF0.0
aF35.71891891891893
aF10.8972972972973
aF4.237837837837839
aF7.385945945945948
aF16.345945945945953
aF18.041081081081085
aa(lp89
F0.0
aF26.810810810810818
aF116.38610038610041
aF59.05791505791507
aF9.389961389961393
aF13.83783783783784
aF0.0
aF0.0
aF36.44787644787645
aF11.119691119691122
aF4.3243243243243255
aF7.536679536679538
aF16.679536679536685
aF18.409266409266415
aa(lp90
F0.0
aF24.129729729729736
aF104.74749034749037
aF53.15212355212356
aF8.450965250965252
aF12.454054054054057
aF0.0
aF0.0
aF32.80308880308881
aF10.007722007722009
aF3.8918918918918926
aF6.783011583011584
aF15.011583011583015
aF16.568339768339772
aa(lp91
F0.0
aF23.32540540540541
aF101.25590733590735
aF51.380386100386104
aF8.16926640926641
aF12.03891891891892
aF0.0
aF0.0
aF31.709652509652514
aF9.674131274131275
aF3.7621621621621624
aF6.556911196911198
aF14.511196911196913
aF16.01606177606178
aa(lp92
F0.0
aF21.984864864864868
aF95.43660231660233
aF48.427490347490355
aF7.699768339768341
aF11.347027027027028
aF0.0
aF0.0
aF29.88725868725869
aF9.118146718146718
aF3.545945945945946
aF6.18007722007722
aF13.67722007722008
aF15.095598455598457
aasS'LinegTilde'
p93
(lp94
F4.999131600798035
aF1.025897454970189
aF1.1350191923073958
aF1.6860331506149429
aF1.7011396670944048
aF1.9859757099255606
aF6.840980661495671
aF0.0
aF0.0
aF0.0
aF1.9550285631772606
aF1.5259674404509738
aF3.0989274038379873
aF0.0
aF0.0
aF3.902049552447428
aF1.4240054870199312
aF1.8808847537003996
aF2.4890245868219187
aF1.1369941578063267
asS'GeneratorRUInDispatchModel'
p95
(lp96
(lp97
F20.0
aF22.5
aF22.5
aF22.5
aF22.5
ag33
aF0.0
aasS'LineMaxFlowForPairOfBuses'
p98
(lp99
(lp100
(lp101
aF135.0
a(lp102
a(lp103
aF135.0
a(lp104
a(lp105
a(lp106
a(lp107
a(lp108
a(lp109
a(lp110
a(lp111
a(lp112
aa(lp113
F135.0
a(lp114
aF135.0
aF135.0
aF135.0
a(lp115
a(lp116
a(lp117
a(lp118
a(lp119
a(lp120
a(lp121
a(lp122
a(lp123
aa(lp124
(lp125
aF135.0
a(lp126
aF135.0
a(lp127
a(lp128
a(lp129
a(lp130
a(lp131
a(lp132
a(lp133
a(lp134
a(lp135
a(lp136
aa(lp137
(lp138
aF135.0
aF135.0
a(lp139
aF135.0
a(lp140
aF135.0
a(lp141
aF135.0
a(lp142
a(lp143
a(lp144
a(lp145
a(lp146
aa(lp147
F135.0
aF135.0
a(lp148
aF135.0
a(lp149
aF135.0
a(lp150
a(lp151
a(lp152
a(lp153
a(lp154
a(lp155
a(lp156
a(lp157
aa(lp158
(lp159
a(lp160
a(lp161
a(lp162
aF135.0
a(lp163
a(lp164
a(lp165
a(lp166
a(lp167
aF135.0
aF135.0
aF135.0
a(lp168
aa(lp169
(lp170
a(lp171
a(lp172
aF135.0
a(lp173
a(lp174
a(lp175
aF135.0
aF135.0
a(lp176
a(lp177
a(lp178
a(lp179
a(lp180
aa(lp181
(lp182
a(lp183
a(lp184
a(lp185
a(lp186
a(lp187
aF135.0
a(lp188
a(lp189
a(lp190
a(lp191
a(lp192
a(lp193
a(lp194
aa(lp195
(lp196
a(lp197
a(lp198
aF135.0
a(lp199
a(lp200
aF135.0
a(lp201
a(lp202
aF135.0
a(lp203
a(lp204
a(lp205
aF135.0
aa(lp206
(lp207
a(lp208
a(lp209
a(lp210
a(lp211
a(lp212
a(lp213
a(lp214
aF135.0
a(lp215
aF135.0
a(lp216
a(lp217
a(lp218
aa(lp219
(lp220
a(lp221
a(lp222
a(lp223
a(lp224
aF135.0
a(lp225
a(lp226
a(lp227
aF135.0
a(lp228
a(lp229
a(lp230
a(lp231
aa(lp232
(lp233
a(lp234
a(lp235
a(lp236
a(lp237
aF135.0
a(lp238
a(lp239
a(lp240
a(lp241
a(lp242
a(lp243
aF135.0
a(lp244
aa(lp245
(lp246
a(lp247
a(lp248
a(lp249
a(lp250
aF135.0
a(lp251
a(lp252
a(lp253
a(lp254
a(lp255
aF135.0
a(lp256
aF135.0
aa(lp257
(lp258
a(lp259
a(lp260
a(lp261
a(lp262
a(lp263
a(lp264
a(lp265
aF135.0
a(lp266
a(lp267
a(lp268
aF135.0
a(lp269
aasS'LinebTilde'
p270
(lp271
F15.26308652317955
aF4.234983682334831
aF4.781863151757718
aF5.115838325872082
aF5.193927397969713
aF5.0688169775939205
aF21.578553981691588
aF4.781943381790359
aF1.7979790715236075
aF3.9679390524561544
aF4.0940743442404415
aF3.1759639650294
aF6.102755448193115
aF5.676979846721544
aF9.090082719752749
aF10.365394127060915
aF3.0290504569306034
aF4.402943749460521
aF2.251974626172212
aF2.314963475105352
asS'BusVmax'
p272
(lp273
F1.06
aF1.06
aF1.06
aF1.06
aF1.06
aF1.06
aF1.06
aF1.06
aF1.06
aF1.06
aF1.06
aF1.06
aF1.06
aF1.06
asS'LineReactanceX'
p274
(lp275
F0.05917
aF0.22304
aF0.19797
aF0.17632
aF0.17388
aF0.17103
aF0.04211
aF0.20912
aF0.55618
aF0.25202
aF0.1989
aF0.25581
aF0.13027
aF0.17615
aF0.11001
aF0.0845
aF0.27038
aF0.19207
aF0.19988
aF0.34802
asS'Bus'
p276
(lp277
S'Bus1'
p278
aS'Bus2'
p279
aS'Bus3'
p280
aS'Bus4'
p281
aS'Bus5'
p282
aS'Bus6'
p283
aS'Bus7'
p284
aS'Bus8'
p285
aS'Bus9'
p286
aS'Bus10'
p287
aS'Bus11'
p288
aS'Bus12'
p289
aS'Bus13'
p290
aS'Bus14'
p291
asS'BusVmin'
p292
(lp293
F0.94
aF0.94
aF0.94
aF0.94
aF0.94
aF0.94
aF0.94
aF0.94
aF0.94
aF0.94
aF0.94
aF0.94
aF0.94
aF0.94
asS'BusShuntSusceptance'
p294
(lp295
F0.0
aF0.0
aF0.0
aF0.0
aF0.0
aF0.0
aF0.0
aF0.0
aF0.0
aF0.0
aF0.0
aF0.0
aF0.0
aF0.0
asS'BusShuntConductance'
p296
(lp297
F0.0
aF0.0
aF0.0
aF0.0
aF0.0
aF0.0
aF0.0
aF0.0
aF0.0
aF0.0
aF0.0
aF0.0
aF0.0
aF0.0
asS'InverseReactance'
p298
(lp299
F16.900456312320433
aF4.483500717360115
aF5.051270394504217
aF5.671506352087114
aF5.751092707614447
aF5.846927439630474
aF23.747328425552123
aF4.781943381790359
aF1.7979790715236075
aF3.967939052456154
aF5.027652086475616
aF3.9091513232477233
aF7.676364473785216
aF5.676979846721544
aF9.09008271975275
aF11.834319526627219
aF3.698498409645684
aF5.206435153850159
aF5.003001801080648
aF2.873398080570082
asS'GeneratorUBInDispatchModel'
p300
(lp301
(lp302
F100.0
aF75.0
aF75.0
aF75.0
aF75.0
ag33
aF0.0
aasS'GeneratorPmax'
p303
(lp304
F100.0
aF75.0
aF75.0
aF75.0
aF75.0
aF34.3073993759728
aF36.091796248303055
asS'GeneratorType'
p305
(lp306
S'Coal'
p307
aS'Gas'
p308
aS'Gas'
p309
aS'Gas'
p310
aS'Gas'
p311
aS'Wind'
p312
aS'Solar'
p313
asS'GeneratorInitialPgInDispatchModel'
p314
(lp315
F100.0
aF75.0
aF67.4518915685
aF7.5
aF7.5
aF20.9481084315
aF0.0
asS'BusG'
p316
(lp317
F6.025029055768224
aF9.521323610814777
aF3.1209949022329564
aF10.512989522036175
aF9.568017783560265
aF6.579923407466222
aF0.0
aF0.0
aF5.326055039467359
aF5.782934306147828
aF3.8359133168776602
aF4.014992027272893
aF6.724946148466233
aF2.560999644826258
asS'SetOfNeighborsOfBus'
p318
(lp319
(lp320
I1
aI4
aa(lp321
I2
aI3
aI4
aI0
aa(lp322
I3
aI1
aa(lp323
I4
aI6
aI8
aI1
aI2
aa(lp324
I5
aI0
aI1
aI3
aa(lp325
I10
aI11
aI12
aI4
aa(lp326
I7
aI8
aI3
aa(lp327
I6
aa(lp328
I9
aI13
aI3
aI6
aa(lp329
I10
aI8
aa(lp330
I5
aI9
aa(lp331
I12
aI5
aa(lp332
I13
aI5
aI11
aa(lp333
I8
aI12
aasS'SetOfLinesThatHaveThisBusAsToBus'
p334
(lp335
(lp336
a(lp337
I0
aa(lp338
I2
aa(lp339
I3
aI5
aa(lp340
I1
aI4
aI6
aa(lp341
I9
aa(lp342
I7
aa(lp343
I13
aa(lp344
I8
aI14
aa(lp345
I15
aa(lp346
I10
aI17
aa(lp347
I11
aa(lp348
I12
aI18
aa(lp349
I16
aI19
aasS'B'
p350
(lp351
(lp352
F-19.49807020551438
aF15.26308652317955
a(lp353
a(lp354
aF4.234983682334831
a(lp355
a(lp356
a(lp357
a(lp358
a(lp359
a(lp360
a(lp361
a(lp362
a(lp363
aa(lp364
F15.26308652317955
aF-30.354715398779064
aF4.781863151757718
aF5.115838325872082
aF5.193927397969713
a(lp365
a(lp366
a(lp367
a(lp368
a(lp369
a(lp370
a(lp371
a(lp372
a(lp373
aa(lp374
(lp375
aF4.781863151757718
aF-9.850680129351638
aF5.0688169775939205
a(lp376
a(lp377
a(lp378
a(lp379
a(lp380
a(lp381
a(lp382
a(lp383
a(lp384
a(lp385
aa(lp386
(lp387
aF5.115838325872082
aF5.0688169775939205
aF-38.343131738471556
aF21.578553981691588
a(lp388
aF4.781943381790359
a(lp389
aF1.7979790715236075
a(lp390
a(lp391
a(lp392
a(lp393
a(lp394
aa(lp395
F4.234983682334831
aF5.193927397969713
a(lp396
aF21.578553981691588
aF-34.97540411445229
aF3.9679390524561544
a(lp397
a(lp398
a(lp399
a(lp400
a(lp401
a(lp402
a(lp403
a(lp404
aa(lp405
(lp406
a(lp407
a(lp408
a(lp409
aF3.9679390524561544
aF-17.34073280991911
a(lp410
a(lp411
a(lp412
a(lp413
aF4.0940743442404415
aF3.1759639650294
aF6.102755448193115
a(lp414
aa(lp415
(lp416
a(lp417
a(lp418
aF4.781943381790359
a(lp419
a(lp420
aF-19.54900594826465
aF5.676979846721544
aF9.090082719752749
a(lp421
a(lp422
a(lp423
a(lp424
a(lp425
aa(lp426
(lp427
a(lp428
a(lp429
a(lp430
a(lp431
a(lp432
aF5.676979846721544
aF-5.676979846721544
a(lp433
a(lp434
a(lp435
a(lp436
a(lp437
a(lp438
aa(lp439
(lp440
a(lp441
a(lp442
aF1.7979790715236075
a(lp443
a(lp444
aF9.090082719752749
a(lp445
aF-24.28250637526788
aF10.365394127060915
a(lp446
a(lp447
a(lp448
aF3.0290504569306034
aa(lp449
(lp450
a(lp451
a(lp452
a(lp453
a(lp454
a(lp455
a(lp456
a(lp457
aF10.365394127060915
aF-14.768337876521436
aF4.402943749460521
a(lp458
a(lp459
a(lp460
aa(lp461
(lp462
a(lp463
a(lp464
a(lp465
a(lp466
aF4.0940743442404415
a(lp467
a(lp468
a(lp469
aF4.402943749460521
aF-8.497018093700962
a(lp470
a(lp471
a(lp472
aa(lp473
(lp474
a(lp475
a(lp476
a(lp477
a(lp478
aF3.1759639650294
a(lp479
a(lp480
a(lp481
a(lp482
a(lp483
aF-5.427938591201611
aF2.251974626172212
a(lp484
aa(lp485
(lp486
a(lp487
a(lp488
a(lp489
a(lp490
aF6.102755448193115
a(lp491
a(lp492
a(lp493
a(lp494
a(lp495
aF2.251974626172212
aF-10.66969354947068
aF2.314963475105352
aa(lp496
(lp497
a(lp498
a(lp499
a(lp500
a(lp501
a(lp502
a(lp503
a(lp504
aF3.0290504569306034
a(lp505
a(lp506
a(lp507
aF2.314963475105352
aF-5.344013932035955
aasS'G'
p508
(lp509
(lp510
F6.025029055768224
aF-4.999131600798035
a(lp511
a(lp512
aF-1.025897454970189
a(lp513
a(lp514
a(lp515
a(lp516
a(lp517
a(lp518
a(lp519
a(lp520
a(lp521
aa(lp522
F-4.999131600798035
aF9.521323610814777
aF-1.1350191923073958
aF-1.6860331506149429
aF-1.7011396670944048
a(lp523
a(lp524
a(lp525
a(lp526
a(lp527
a(lp528
a(lp529
a(lp530
a(lp531
aa(lp532
(lp533
aF-1.1350191923073958
aF3.1209949022329564
aF-1.9859757099255606
a(lp534
a(lp535
a(lp536
a(lp537
a(lp538
a(lp539
a(lp540
a(lp541
a(lp542
a(lp543
aa(lp544
(lp545
aF-1.6860331506149429
aF-1.9859757099255606
aF10.512989522036175
aF-6.840980661495671
a(lp546
aF0.0
a(lp547
aF0.0
a(lp548
a(lp549
a(lp550
a(lp551
a(lp552
aa(lp553
F-1.025897454970189
aF-1.7011396670944048
a(lp554
aF-6.840980661495671
aF9.568017783560265
aF0.0
a(lp555
a(lp556
a(lp557
a(lp558
a(lp559
a(lp560
a(lp561
a(lp562
aa(lp563
(lp564
a(lp565
a(lp566
a(lp567
aF0.0
aF6.579923407466222
a(lp568
a(lp569
a(lp570
a(lp571
aF-1.9550285631772606
aF-1.5259674404509738
aF-3.0989274038379873
a(lp572
aa(lp573
(lp574
a(lp575
a(lp576
aF0.0
a(lp577
a(lp578
aF0.0
aF0.0
aF0.0
a(lp579
a(lp580
a(lp581
a(lp582
a(lp583
aa(lp584
(lp585
a(lp586
a(lp587
a(lp588
a(lp589
a(lp590
aF0.0
aF0.0
a(lp591
a(lp592
a(lp593
a(lp594
a(lp595
a(lp596
aa(lp597
(lp598
a(lp599
a(lp600
aF0.0
a(lp601
a(lp602
aF0.0
a(lp603
aF5.326055039467359
aF-3.902049552447428
a(lp604
a(lp605
a(lp606
aF-1.4240054870199312
aa(lp607
(lp608
a(lp609
a(lp610
a(lp611
a(lp612
a(lp613
a(lp614
a(lp615
aF-3.902049552447428
aF5.782934306147828
aF-1.8808847537003996
a(lp616
a(lp617
a(lp618
aa(lp619
(lp620
a(lp621
a(lp622
a(lp623
a(lp624
aF-1.9550285631772606
a(lp625
a(lp626
a(lp627
aF-1.8808847537003996
aF3.8359133168776602
a(lp628
a(lp629
a(lp630
aa(lp631
(lp632
a(lp633
a(lp634
a(lp635
a(lp636
aF-1.5259674404509738
a(lp637
a(lp638
a(lp639
a(lp640
a(lp641
aF4.014992027272893
aF-2.4890245868219187
a(lp642
aa(lp643
(lp644
a(lp645
a(lp646
a(lp647
a(lp648
aF-3.0989274038379873
a(lp649
a(lp650
a(lp651
a(lp652
a(lp653
aF-2.4890245868219187
aF6.724946148466233
aF-1.1369941578063267
aa(lp654
(lp655
a(lp656
a(lp657
a(lp658
a(lp659
a(lp660
a(lp661
a(lp662
aF-1.4240054870199312
a(lp663
a(lp664
a(lp665
aF-1.1369941578063267
aF2.560999644826258
aasS'GeneratorRDInDispatchModel'
p666
(lp667
(lp668
F20.0
aF22.5
aF22.5
aF22.5
aF22.5
ag33
aF0.0
aasS'Lineb'
p669
(lp670
F-15.26308652317955
aF-4.234983682334831
aF-4.781863151757718
aF-5.115838325872082
aF-5.193927397969713
aF-5.0688169775939205
aF-21.578553981691588
aF-4.781943381790359
aF-1.7979790715236075
aF-3.9679390524561544
aF-4.0940743442404415
aF-3.1759639650294
aF-6.102755448193115
aF-5.676979846721544
aF-9.090082719752749
aF-10.365394127060915
aF-3.0290504569306034
aF-4.402943749460521
aF-2.251974626172212
aF-2.314963475105352
asS'CostOfPUnderOrOverGenerationInUSDPerMWh'
p671
I5000
sS'SetOfLinesThatHaveThisBusAsFromBus'
p672
(lp673
(lp674
I0
aI1
aa(lp675
I2
aI3
aI4
aa(lp676
I5
aa(lp677
I6
aI7
aI8
aa(lp678
I9
aa(lp679
I10
aI11
aI12
aa(lp680
I13
aI14
aa(lp681
a(lp682
I15
aI16
aa(lp683
I17
aa(lp684
a(lp685
I18
aa(lp686
I19
aa(lp687
asS'GeneratorVariableCostInUSDPerMWh'
p688
(lp689
F20.0
aF40.0
aF60.0
aF80.0
aF100.0
aF0.0
aF0.0
asS'BusB'
p690
(lp691
F-19.49807020551438
aF-30.354715398779064
aF-9.850680129351638
aF-38.343131738471556
aF-34.97540411445229
aF-17.34073280991911
aF-19.54900594826465
aF-5.676979846721544
aF-24.28250637526788
aF-14.768337876521436
aF-8.497018093700962
aF-5.427938591201611
aF-10.66969354947068
aF-5.344013932035955
asS'GeneratorPmin'
p692
(lp693
F40.0
aF7.5
aF7.5
aF7.5
aF7.5
aF0.0
aF0.0
asS'Lineg'
p694
(lp695
F4.999131600798035
aF1.025897454970189
aF1.1350191923073958
aF1.6860331506149429
aF1.7011396670944048
aF1.9859757099255606
aF6.840980661495671
aF0.0
aF0.0
aF0.0
aF1.9550285631772606
aF1.5259674404509738
aF3.0989274038379873
aF0.0
aF0.0
aF3.902049552447428
aF1.4240054870199312
aF1.8808847537003996
aF2.4890245868219187
aF1.1369941578063267
asS'PdInDispatchModel'
p696
(lp697
(lp698
F0.0
aF21.984864864864868
aF95.43660231660233
aF48.427490347490355
aF7.699768339768341
aF11.347027027027028
aF0.0
aF0.0
aF29.88725868725869
aF9.118146718146718
aF3.545945945945946
aF6.18007722007722
aF13.67722007722008
aF15.095598455598457
aasS'GeneratorBusIndex'
p699
(lp700
I0
aI1
aI2
aI5
aI7
aI1
aI7
asS'Line'
p701
(lp702
S'Line1To2'
p703
aS'Line1To5'
p704
aS'Line2To3'
p705
aS'Line2To4'
p706
aS'Line2To5'
p707
aS'Line3To4'
p708
aS'Line4To5'
p709
aS'Line4To7'
p710
aS'Line4To9'
p711
aS'Line5To6'
p712
aS'Line6To11'
p713
aS'Line6To12'
p714
aS'Line6To13'
p715
aS'Line7To8'
p716
aS'Line7To9'
p717
aS'Line9To10'
p718
aS'Line9To14'
p719
aS'Line10To11'
p720
aS'Line12To13'
p721
aS'Line13To14'
p722
asS'PowerAvailabilityProfile'
p723
(lp724
(lp725
F0.0
aF0.0
aF0.0
aF0.0
aF0.0
aF31.167028084846212
aF0.0
aa(lp726
F0.0
aF0.0
aF0.0
aF0.0
aF0.0
aF29.425609562813513
aF0.0
aa(lp727
F0.0
aF0.0
aF0.0
aF0.0
aF0.0
aF27.672290686345676
aF0.0
aa(lp728
F0.0
aF0.0
aF0.0
aF0.0
aF0.0
aF28.632252604835134
aF0.0
aa(lp729
F0.0
aF0.0
aF0.0
aF0.0
aF0.0
aF28.751256148226485
aF0.00014809329877823026
aa(lp730
F0.0
aF0.0
aF0.0
aF0.0
aF0.0
aF29.223303538341348
aF7.145205479452054
aa(lp731
F0.0
aF0.0
aF0.0
aF0.0
aF0.0
aF28.636219389714864
aF32.11573491299513
aa(lp732
F0.0
aF0.0
aF0.0
aF0.0
aF0.0
aF29.73898556097351
aF64.62436134764891
aa(lp733
F0.0
aF0.0
aF0.0
aF0.0
aF0.0
aF30.42127254455378
aF84.54661236579027
aa(lp734
F0.0
aF0.0
aF0.0
aF0.0
aF0.0
aF31.76601258799324
aF90.8602739726027
aa(lp735
F0.0
aF0.0
aF0.0
aF0.0
aF0.0
aF33.13058655539784
aF92.64435394298405
aa(lp736
F0.0
aF0.0
aF0.0
aF0.0
aF0.0
aF36.40715079083648
aF93.03109959274323
aa(lp737
F0.0
aF0.0
aF0.0
aF0.0
aF0.0
aF38.46194531159189
aF92.74801925212864
aa(lp738
F0.0
aF0.0
aF0.0
aF0.0
aF0.0
aF40.528640186164324
aF91.19400222139946
aa(lp739
F0.0
aF0.0
aF0.0
aF0.0
aF0.0
aF41.393399270022165
aF86.71432802665674
aa(lp740
F0.0
aF0.0
aF0.0
aF0.0
aF0.0
aF42.51599936542378
aF73.32647167715648
aa(lp741
F0.0
aF0.0
aF0.0
aF0.0
aF0.0
aF45.49505474166216
aF41.89751943724541
aa(lp742
F0.0
aF0.0
aF0.0
aF0.0
aF0.0
aF42.611202200418106
aF14.732839689004052
aa(lp743
F0.0
aF0.0
aF0.0
aF0.0
aF0.0
aF37.747924049807295
aF0.6221399481673432
aa(lp744
F0.0
aF0.0
aF0.0
aF0.0
aF0.0
aF34.48722695303567
aF0.0
aa(lp745
F0.0
aF0.0
aF0.0
aF0.0
aF0.0
aF35.9827048185227
aF0.0
aa(lp746
F0.0
aF0.0
aF0.0
aF0.0
aF0.0
aF35.47098958055162
aF0.0
aa(lp747
F0.0
aF0.0
aF0.0
aF0.0
aF0.0
aF32.50383455845216
aF0.0
aa(lp748
F0.0
aF0.0
aF0.0
aF0.0
aF0.0
aF31.206695932817297
aF0.0
aasS'GeneratorMinUp'
p749
(lp750
F8.0
aF4.0
aF4.0
aF4.0
aF4.0
aF1.0
aF1.0
asS'GeneratorRampDownInMWPerHour'
p751
(lp752
F20.0
aF22.5
aF22.5
aF22.5
aF22.5
aF343.073993759728
aF360.9179624830306
asS'TimePeriod'
p753
(lp754
I0
asS'GeneratorSRampDownInMW'
p755
(lp756
F40.01
aF22.5
aF22.5
aF22.5
aF22.5
aF343.073993759728
aF360.9179624830306
asS'LineResistanceR'
p757
(lp758
F0.01938
aF0.05403
aF0.04699
aF0.05811
aF0.05695
aF0.06701
aF0.01335
aF0.0
aF0.0
aF0.0
aF0.09498
aF0.12291
aF0.06615
aF0.0
aF0.0
aF0.03181
aF0.12711
aF0.08205
aF0.22092
aF0.17093
asS'LineMaxFlow'
p759
(lp760
F135.0
aF135.0
aF135.0
aF135.0
aF135.0
aF135.0
aF135.0
aF135.0
aF135.0
aF135.0
aF135.0
aF135.0
aF135.0
aF135.0
aF135.0
aF135.0
aF135.0
aF135.0
aF135.0
aF135.0
asS'GeneratorMinDw'
p761
(lp762
F8.0
aF4.0
aF4.0
aF4.0
aF4.0
aF1.0
aF1.0
asS'GeneratorRampUpInMWPerHour'
p763
(lp764
F20.0
aF22.5
aF22.5
aF22.5
aF22.5
aF343.073993759728
aF360.9179624830306
asS'FileName'
p765
S'Case014.xlsx'
p766
sS'SetOfGeneratorsAtBus'
p767
(lp768
(lp769
I0
aa(lp770
I1
aI5
aa(lp771
I2
aa(lp772
a(lp773
a(lp774
I3
aa(lp775
a(lp776
I4
aI6
aa(lp777
a(lp778
a(lp779
a(lp780
a(lp781
a(lp782
asS'SetL'
p783
(lp784
(lp785
I0
aI1
aa(lp786
I1
aI0
aa(lp787
I0
aI4
aa(lp788
I4
aI0
aa(lp789
I1
aI2
aa(lp790
I2
aI1
aa(lp791
I1
aI3
aa(lp792
I3
aI1
aa(lp793
I1
aI4
aa(lp794
I4
aI1
aa(lp795
I2
aI3
aa(lp796
I3
aI2
aa(lp797
I3
aI4
aa(lp798
I4
aI3
aa(lp799
I3
aI6
aa(lp800
I6
aI3
aa(lp801
I3
aI8
aa(lp802
I8
aI3
aa(lp803
I4
aI5
aa(lp804
I5
aI4
aa(lp805
I5
aI10
aa(lp806
I10
aI5
aa(lp807
I5
aI11
aa(lp808
I11
aI5
aa(lp809
I5
aI12
aa(lp810
I12
aI5
aa(lp811
I6
aI7
aa(lp812
I7
aI6
aa(lp813
I6
aI8
aa(lp814
I8
aI6
aa(lp815
I8
aI9
aa(lp816
I9
aI8
aa(lp817
I8
aI13
aa(lp818
I13
aI8
aa(lp819
I9
aI10
aa(lp820
I10
aI9
aa(lp821
I11
aI12
aa(lp822
I12
aI11
aa(lp823
I12
aI13
aa(lp824
I13
aI12
aasS'GeneratorInitP'
p825
(lp826
F0.0
aF0.0
aF0.0
aF0.0
aF0.0
aF0.0
aF0.0
asS'GeneratorInitS'
p827
(lp828
F-8.0
aF-4.0
aF-4.0
aF-4.0
aF-4.0
aF-1.0
aF-1.0
asS'GeneratorStartUpCostInUSD'
p829
(lp830
F3000.0
aF2250.0
aF2250.0
aF2250.0
aF2250.0
aF0.0
aF0.0
asS'LineG'
p831
(lp832
F-4.999131600798035
aF-1.025897454970189
aF-1.1350191923073958
aF-1.6860331506149429
aF-1.7011396670944048
aF-1.9859757099255606
aF-6.840980661495671
aF0.0
aF0.0
aF0.0
aF-1.9550285631772606
aF-1.5259674404509738
aF-3.0989274038379873
aF0.0
aF0.0
aF-3.902049552447428
aF-1.4240054870199312
aF-1.8808847537003996
aF-2.4890245868219187
aF-1.1369941578063267
asS'TimePeriodsSimulation'
p833
(lp834
I1
aI2
aI3
aI4
aI5
aI6
aI7
aI8
aI9
aI10
aI11
aI12
aI13
aI14
aI15
aI16
aI17
aI18
aI19
aI20
aI21
aI22
aI23
aI24
asS'LineB'
p835
(lp836
F15.26308652317955
aF4.234983682334831
aF4.781863151757718
aF5.115838325872082
aF5.193927397969713
aF5.0688169775939205
aF21.578553981691588
aF4.781943381790359
aF1.7979790715236075
aF3.9679390524561544
aF4.0940743442404415
aF3.1759639650294
aF6.102755448193115
aF5.676979846721544
aF9.090082719752749
aF10.365394127060915
aF3.0290504569306034
aF4.402943749460521
aF2.251974626172212
aF2.314963475105352
asS'GeneratorLBInDispatchModel'
p837
(lp838
(lp839
F40.0
aF7.5
aF7.5
aF7.5
aF7.5
aF0.0
aF0.0
aas.