(lp0
(lp1
(lp2
F0.0
aF0.0
aF0.0
aF0.0
aF0.0
acnumpy.core.multiarray
scalar
p3
(cnumpy
dtype
p4
(S'f8'
p5
I0
I1
tp6
Rp7
(I3
S'<'
p8
NNNI-1
I-1
I0
tp9
bS'H\x87\xaa\xbb\xa9\xb6B@'
p10
tp11
Rp12
aF0.0
aa(lp13
F0.0
aF0.0
aF0.0
aF0.0
aF0.0
ag3
(g7
S'\x9enOq\xb8{<@'
p14
tp15
Rp16
aF0.0
aa(lp17
F0.0
aF0.0
aF0.0
aF0.0
aF0.0
ag3
(g7
S'\xde\xb1\x1f\x17\xb3t>@'
p18
tp19
Rp20
aF0.0
aa(lp21
F0.0
aF0.0
aF0.0
aF0.0
aF0.0
ag3
(g7
S'\xfe\xa4B\xfa\xfe\xc8C@'
p22
tp23
Rp24
aF0.0
aa(lp25
F0.0
aF0.0
aF0.0
aF0.0
aF0.0
ag3
(g7
S'*\xdd\xf4\x8e\xf6>F@'
p26
tp27
Rp28
ag3
(g7
S"?\x84\x9aSB\xb5'?"
p29
tp30
Rp31
aa(lp32
F0.0
aF0.0
aF0.0
aF0.0
aF0.0
ag3
(g7
S'\xd6/I\xf9\xf4\xa8A@'
p33
tp34
Rp35
ag3
(g7
S'\xe6~\x05{@\x14!@'
p36
tp37
Rp38
aa(lp39
F0.0
aF0.0
aF0.0
aF0.0
aF0.0
ag3
(g7
S'\xee\x04\x12,X";@'
p40
tp41
Rp42
ag3
(g7
S'\xc52k\xcejL@@'
p43
tp44
Rp45
aa(lp46
F0.0
aF0.0
aF0.0
aF0.0
aF0.0
ag3
(g7
S'\xee\x8e \x13\xab\xd33@'
p47
tp48
Rp49
ag3
(g7
S'\\\r\xbaFY\x92H@'
p50
tp51
Rp52
aa(lp53
F0.0
aF0.0
aF0.0
aF0.0
aF0.0
ag3
(g7
S'\t\x95\nm`\x8c/@'
p54
tp55
Rp56
ag3
(g7
S'\xc3c]n\xfe~W@'
p57
tp58
Rp59
aa(lp60
F0.0
aF0.0
aF0.0
aF0.0
aF0.0
ag3
(g7
S')\x01W\x80\xcen<@'
p61
tp62
Rp63
ag3
(g7
S'\xea\xc7N2\xb6DU@'
p64
tp65
Rp66
aa(lp67
F0.0
aF0.0
aF0.0
aF0.0
aF0.0
ag3
(g7
S'J\xc3\xa3pF\xeb:@'
p68
tp69
Rp70
ag3
(g7
S'.x\x9e\xc7\xf9\xa7^@'
p71
tp72
Rp73
aa(lp74
F0.0
aF0.0
aF0.0
aF0.0
aF0.0
ag3
(g7
S',w\x16\xfc>\xe98@'
p75
tp76
Rp77
ag3
(g7
S'z\xdf\xf7,C\xbcR@'
p78
tp79
Rp80
aa(lp81
F0.0
aF0.0
aF0.0
aF0.0
aF0.0
ag3
(g7
S'Z\x84\xa7<\xae\x9fH@'
p82
tp83
Rp84
ag3
(g7
S'x\x04\xa8\xbb\xf5"\\@'
p85
tp86
Rp87
aa(lp88
F0.0
aF0.0
aF0.0
aF0.0
aF0.0
ag3
(g7
S'd\xf1\xb3\xff\xc4\xb39@'
p89
tp90
Rp91
ag3
(g7
S'X\xcd&\xc8\xf0\xe3X@'
p92
tp93
Rp94
aa(lp95
F0.0
aF0.0
aF0.0
aF0.0
aF0.0
ag3
(g7
S'\xec9\xa8\x92GeF@'
p96
tp97
Rp98
ag3
(g7
S'\xd5jX\t\x8eiX@'
p99
tp100
Rp101
aa(lp102
F0.0
aF0.0
aF0.0
aF0.0
aF0.0
ag3
(g7
S'\x06\x18K\x0e"\x93?@'
p103
tp104
Rp105
ag3
(g7
S'\xe4<|D\x0e\x08?@'
p106
tp107
Rp108
aa(lp109
F0.0
aF0.0
aF0.0
aF0.0
aF0.0
ag3
(g7
S'\xc8,oI"\xabO@'
p110
tp111
Rp112
ag3
(g7
S'\x1c\x16\x18\xea\xc7\xf1M@'
p113
tp114
Rp115
aa(lp116
F0.0
aF0.0
aF0.0
aF0.0
aF0.0
ag3
(g7
S't\xacqo\xe0BM@'
p117
tp118
Rp119
ag3
(g7
S'dQ\xd5\xb8&k\x1b@'
p120
tp121
Rp122
aa(lp123
F0.0
aF0.0
aF0.0
aF0.0
aF0.0
ag3
(g7
S'|\x0b\xd0<\x16\xee=@'
p124
tp125
Rp126
ag3
(g7
S'-~\xfb=nJ\xd9?'
p127
tp128
Rp129
aa(lp130
F0.0
aF0.0
aF0.0
aF0.0
aF0.0
ag3
(g7
S'\xfb\x11<<\x13ZF@'
p131
tp132
Rp133
aF0.0
aa(lp134
F0.0
aF0.0
aF0.0
aF0.0
aF0.0
ag3
(g7
S'\xde\xf0\xd2\xba;1K@'
p135
tp136
Rp137
aF0.0
aa(lp138
F0.0
aF0.0
aF0.0
aF0.0
aF0.0
ag3
(g7
S' \xffr\xe7\x96_6@'
p139
tp140
Rp141
aF0.0
aa(lp142
F0.0
aF0.0
aF0.0
aF0.0
aF0.0
ag3
(g7
S';\x8c\xe6\xff\x14\xc6H@'
p143
tp144
Rp145
aF0.0
aa(lp146
F0.0
aF0.0
aF0.0
aF0.0
aF0.0
ag3
(g7
S'ks\xfd\x92\xcc\xe4>@'
p147
tp148
Rp149
aF0.0
aaa(lp150
(lp151
F0.0
aF0.0
aF0.0
aF0.0
aF0.0
ag3
(g7
S'\xd3\x93f\xac\xc0\x0e:@'
p152
tp153
Rp154
aF0.0
aa(lp155
F0.0
aF0.0
aF0.0
aF0.0
aF0.0
ag3
(g7
S'\x12\x0ft@_\xf0D@'
p156
tp157
Rp158
aF0.0
aa(lp159
F0.0
aF0.0
aF0.0
aF0.0
aF0.0
ag3
(g7
S'eN\xee)\x83Z<@'
p160
tp161
Rp162
aF0.0
aa(lp163
F0.0
aF0.0
aF0.0
aF0.0
aF0.0
ag3
(g7
S'\x98\x1b\xd3\xbc1\xc67@'
p164
tp165
Rp166
aF0.0
aa(lp167
F0.0
aF0.0
aF0.0
aF0.0
aF0.0
ag3
(g7
S'U\x00\xe7\xe6\x85z<@'
p168
tp169
Rp170
ag3
(g7
S'M\x82\x02\xd6\xe3\xaf\x15?'
p171
tp172
Rp173
aa(lp174
F0.0
aF0.0
aF0.0
aF0.0
aF0.0
ag3
(g7
S'\x93\xb2g"\x9d\xfeB@'
p175
tp176
Rp177
ag3
(g7
S'v]\xe5\xb7\x81\xa9"@'
p178
tp179
Rp180
aa(lp181
F0.0
aF0.0
aF0.0
aF0.0
aF0.0
ag3
(g7
S'"\xa3\x14\x082\xb7A@'
p182
tp183
Rp184
ag3
(g7
S'\xa4;y\x1c\xe2\x99<@'
p185
tp186
Rp187
aa(lp188
F0.0
aF0.0
aF0.0
aF0.0
aF0.0
ag3
(g7
S'\xff\xf3\xcftZmD@'
p189
tp190
Rp191
ag3
(g7
S'\xba\x85$Y\xf7\xa8P@'
p192
tp193
Rp194
aa(lp195
F0.0
aF0.0
aF0.0
aF0.0
aF0.0
ag3
(g7
S'\\o\xc6~\xec)(@'
p196
tp197
Rp198
ag3
(g7
S'^Wa9#uN@'
p199
tp200
Rp201
aa(lp202
F0.0
aF0.0
aF0.0
aF0.0
aF0.0
ag3
(g7
S'\x96U&J\xc1\xa6C@'
p203
tp204
Rp205
ag3
(g7
S'\x12\nLg\x11\xc4M@'
p206
tp207
Rp208
aa(lp209
F0.0
aF0.0
aF0.0
aF0.0
aF0.0
ag3
(g7
S'4\x805\xbe\x99\r6@'
p210
tp211
Rp212
ag3
(g7
S'dJ.ve`V@'
p213
tp214
Rp215
aa(lp216
F0.0
aF0.0
aF0.0
aF0.0
aF0.0
ag3
(g7
S'uF\x9a\xd3\x8d\x13?@'
p217
tp218
Rp219
ag3
(g7
S'\x1a\xd4w\xa8\xf9\x85_@'
p220
tp221
Rp222
aa(lp223
F0.0
aF0.0
aF0.0
aF0.0
aF0.0
ag3
(g7
S'\x82_&\xe8\xc9\xd1G@'
p224
tp225
Rp226
ag3
(g7
S"{\xa7'?\xde\x0fW@"
p227
tp228
Rp229
aa(lp230
F0.0
aF0.0
aF0.0
aF0.0
aF0.0
ag3
(g7
S'4dT+\xd7\x1dH@'
p231
tp232
Rp233
ag3
(g7
S'[t\xb1=\nbQ@'
p234
tp235
Rp236
aa(lp237
F0.0
aF0.0
aF0.0
aF0.0
aF0.0
ag3
(g7
S'FE\xd5D$QC@'
p238
tp239
Rp240
ag3
(g7
S'U\xa0Ld\xac\xc8Y@'
p241
tp242
Rp243
aa(lp244
F0.0
aF0.0
aF0.0
aF0.0
aF0.0
ag3
(g7
S'\tR\x9a.\x99g2@'
p245
tp246
Rp247
ag3
(g7
S'.\xaf\xaaZ\xcdwU@'
p248
tp249
Rp250
aa(lp251
F0.0
aF0.0
aF0.0
aF0.0
aF0.0
ag3
(g7
S'\xb5\xf5\xc8\xf5\xdc\x987@'
p252
tp253
Rp254
ag3
(g7
S"\xa7\x11\xc2'\xf3\xbbD@"
p255
tp256
Rp257
aa(lp258
F0.0
aF0.0
aF0.0
aF0.0
aF0.0
ag3
(g7
S'4W\xed\xb22\x01C@'
p259
tp260
Rp261
ag3
(g7
S'\x1a\xcb\x9dgu\xc0-@'
p262
tp263
Rp264
aa(lp265
F0.0
aF0.0
aF0.0
aF0.0
aF0.0
ag3
(g7
S'\x14\xdb"r\xa5\x9d9@'
p266
tp267
Rp268
ag3
(g7
S'\x1fclV\xc0r\xeb?'
p269
tp270
Rp271
aa(lp272
F0.0
aF0.0
aF0.0
aF0.0
aF0.0
ag3
(g7
S'\x8c;\xa0\xbe\xbf\xacC@'
p273
tp274
Rp275
aF0.0
aa(lp276
F0.0
aF0.0
aF0.0
aF0.0
aF0.0
ag3
(g7
S'\x13E\xe1 \x07\xc9<@'
p277
tp278
Rp279
aF0.0
aa(lp280
F0.0
aF0.0
aF0.0
aF0.0
aF0.0
ag3
(g7
S'p\xe6Z\x95V\xeb>@'
p281
tp282
Rp283
aF0.0
aa(lp284
F0.0
aF0.0
aF0.0
aF0.0
aF0.0
ag3
(g7
S'`W\xf2;\xb7\xf24@'
p285
tp286
Rp287
aF0.0
aa(lp288
F0.0
aF0.0
aF0.0
aF0.0
aF0.0
ag3
(g7
S'\xbd\x9f\xb0\x16\xcf\x84:@'
p289
tp290
Rp291
aF0.0
aaa.